; Function Attrs: mustprogress nofree norecurse nosync nounwind willreturn memory(argmem: readwrite) uwtable
define noundef zeroext i1 @_ZN3net15HybridSlowStart19ShouldExitSlowStartENS_8QuicTime5DeltaES2_m(ptr noundef nonnull align 8 captures(none) dereferenceable(48) %0, i64 %1, i64 %2, i64 %3, i64 %4, i64 noundef %5) local_unnamed_addr #1 align 2 {
  %7 = load i8, ptr %0, align 8, !tbaa !3, !range !17, !noundef !18
  %8 = trunc nuw i8 %7 to i1
  br i1 %8, label %15, label %9

9:                                                ; preds = %6
  %10 = getelementptr inbounds nuw i8, ptr %0, i64 8
  %11 = load i64, ptr %10, align 8, !tbaa !14
  %12 = getelementptr inbounds nuw i8, ptr %0, i64 16
  store i64 %11, ptr %12, align 8, !tbaa !13
  %13 = getelementptr inbounds nuw i8, ptr %0, i64 32
  %14 = getelementptr inbounds nuw i8, ptr %0, i64 24
  store i32 0, ptr %14, align 8, !tbaa !16
  tail call void @llvm.memset.p0.i64(ptr noundef nonnull align 8 dereferenceable(16) %13, i8 0, i64 16, i1 false)
  store i8 1, ptr %0, align 8, !tbaa !3
  br label %15

15:                                               ; preds = %9, %6
  %16 = getelementptr inbounds nuw i8, ptr %0, i64 4
  %17 = load i32, ptr %16, align 4, !tbaa !15
  %.not = icmp eq i32 %17, 0
  br i1 %.not, label %18, label %40

18:                                               ; preds = %15
  %19 = getelementptr inbounds nuw i8, ptr %0, i64 24
  %20 = load i32, ptr %19, align 8, !tbaa !16
  %21 = add i32 %20, 1
  store i32 %21, ptr %19, align 8, !tbaa !16
  %22 = icmp ult i32 %21, 9
  br i1 %22, label %23, label %.thread

23:                                               ; preds = %18
  %24 = getelementptr inbounds nuw i8, ptr %0, i64 40
  %25 = load i64, ptr %24, align 8, !tbaa !19
  %26 = icmp eq i64 %25, 0
  %27 = icmp slt i64 %2, %25
  %or.cond = select i1 %26, i1 true, i1 %27
  br i1 %or.cond, label %28, label %30

28:                                               ; preds = %23
  %29 = getelementptr inbounds nuw i8, ptr %0, i64 32
  store i64 %1, ptr %29, align 8, !tbaa !20
  store i64 %2, ptr %24, align 8, !tbaa !19
  br label %30

30:                                               ; preds = %23, %28
  %.sroa.26.0.copyload = phi i64 [ %25, %23 ], [ %2, %28 ]
  %31 = icmp eq i32 %21, 8
  br i1 %31, label %32, label %.thread

32:                                               ; preds = %30
  %33 = ashr i64 %4, 3
  %.sroa.speculated18 = tail call i64 @llvm.smin.i64(i64 %33, i64 16000)
  %.sroa.speculated = tail call i64 @llvm.smax.i64(i64 %.sroa.speculated18, i64 4000)
  %34 = add nsw i64 %.sroa.speculated, %4
  %35 = icmp slt i64 %34, %.sroa.26.0.copyload
  br i1 %35, label %36, label %.thread

36:                                               ; preds = %32
  store i32 1, ptr %16, align 4, !tbaa !15
  br label %.thread

.thread:                                          ; preds = %18, %32, %36, %30
  %37 = phi i1 [ false, %18 ], [ false, %32 ], [ true, %36 ], [ false, %30 ]
  %38 = icmp ugt i64 %5, 15
  %39 = and i1 %38, %37
  br label %40

40:                                               ; preds = %15, %.thread
  %.0 = phi i1 [ %39, %.thread ], [ true, %15 ]
  ret i1 %.0
}